; Function Attrs: mustprogress nounwind uwtable
define dso_local void @_ZN23btDefaultSoftBodySolverD0Ev(ptr noundef nonnull align 8 dereferenceable(56) initializes((0, 8)) %0) unnamed_addr #1 align 2 personality ptr @__gxx_personality_v0 {
  store ptr getelementptr inbounds nuw inrange(-16, 128) (i8, ptr @_ZTV23btDefaultSoftBodySolver, i64 16), ptr %0, align 8, !tbaa !12
  %2 = getelementptr inbounds nuw i8, ptr %0, i64 40
  %3 = load ptr, ptr %2, align 8, !tbaa !20
  %.not.i.i.i.i = icmp eq ptr %3, null
  br i1 %.not.i.i.i.i, label %_ZN23btDefaultSoftBodySolverD2Ev.exit, label %4

4:                                                ; preds = %1
  %5 = getelementptr inbounds nuw i8, ptr %0, i64 48
  %6 = load i8, ptr %5, align 8, !tbaa !14, !range !25, !noundef !26
  %7 = trunc nuw i8 %6 to i1
  br i1 %7, label %8, label %_ZN23btDefaultSoftBodySolverD2Ev.exit

8:                                                ; preds = %4
  invoke void @_Z21btAlignedFreeInternalPv(ptr noundef nonnull %3)
          to label %_ZN23btDefaultSoftBodySolverD2Ev.exit unwind label %9

9:                                                ; preds = %8
  %10 = landingpad { ptr, i32 }
          catch ptr null
  %11 = extractvalue { ptr, i32 } %10, 0
  tail call void @__clang_call_terminate(ptr %11) #9
  unreachable

_ZN23btDefaultSoftBodySolverD2Ev.exit:            ; preds = %1, %4, %8
  tail call void @_ZdlPvm(ptr noundef nonnull %0, i64 noundef 56) #10
  ret void
}